; ModuleID = '33/31.c'
source_filename = "33/31.c"
target datalayout = "e-m:e-p270:32:32-p271:32:32-p272:64:64-i64:64-f80:128-n8:16:32:64-S128"
target triple = "x86_64-pc-linux-gnu"

%struct.DNA = type { [255 x i8] }

@.str = private unnamed_addr constant [4 x i8] c"%d\0A\00", align 1
@a = common dso_local global [1000 x %struct.DNA] zeroinitializer, align 16

; Function Attrs: noinline nounwind uwtable
define dso_local i32 @main() #0 {
  %1 = alloca i32, align 4
  %2 = alloca i32, align 4
  %3 = alloca i32, align 4
  %4 = alloca i32, align 4
  %5 = alloca i32, align 4
  store i32 0, i32* %1, align 4
  %6 = call i32 (i8*, ...) @__isoc99_scanf(i8* getelementptr inbounds ([4 x i8], [4 x i8]* @.str, i64 0, i64 0), i32* %2)
  store i32 0, i32* %3, align 4
  br label %7

7:                                                ; preds = %119, %0
  %8 = load i32, i32* %3, align 4
  %9 = load i32, i32* %2, align 4
  %10 = icmp slt i32 %8, %9
  br i1 %10, label %11, label %122

11:                                               ; preds = %7
  %12 = load i32, i32* %3, align 4
  %13 = sext i32 %12 to i64
  %14 = getelementptr inbounds [1000 x %struct.DNA], [1000 x %struct.DNA]* @a, i64 0, i64 %13
  %15 = getelementptr inbounds %struct.DNA, %struct.DNA* %14, i32 0, i32 0
  %16 = getelementptr inbounds [255 x i8], [255 x i8]* %15, i64 0, i64 0
  %17 = call i32 (i8*, ...) bitcast (i32 (...)* @gets to i32 (i8*, ...)*)(i8* %16)
  %18 = load i32, i32* %3, align 4
  %19 = sext i32 %18 to i64
  %20 = getelementptr inbounds [1000 x %struct.DNA], [1000 x %struct.DNA]* @a, i64 0, i64 %19
  %21 = getelementptr inbounds %struct.DNA, %struct.DNA* %20, i32 0, i32 0
  %22 = getelementptr inbounds [255 x i8], [255 x i8]* %21, i64 0, i64 0
  %23 = call i64 @strlen(i8* %22) #3
  %24 = trunc i64 %23 to i32
  store i32 %24, i32* %5, align 4
  store i32 0, i32* %4, align 4
  br label %25

25:                                               ; preds = %109, %11
  %26 = load i32, i32* %4, align 4
  %27 = load i32, i32* %5, align 4
  %28 = icmp slt i32 %26, %27
  br i1 %28, label %29, label %112

29:                                               ; preds = %25
  %30 = load i32, i32* %3, align 4
  %31 = sext i32 %30 to i64
  %32 = getelementptr inbounds [1000 x %struct.DNA], [1000 x %struct.DNA]* @a, i64 0, i64 %31
  %33 = getelementptr inbounds %struct.DNA, %struct.DNA* %32, i32 0, i32 0
  %34 = load i32, i32* %4, align 4
  %35 = sext i32 %34 to i64
  %36 = getelementptr inbounds [255 x i8], [255 x i8]* %33, i64 0, i64 %35
  %37 = load i8, i8* %36, align 1
  %38 = sext i8 %37 to i32
  %39 = icmp eq i32 %38, 65
  br i1 %39, label %40, label %48

40:                                               ; preds = %29
  %41 = load i32, i32* %3, align 4
  %42 = sext i32 %41 to i64
  %43 = getelementptr inbounds [1000 x %struct.DNA], [1000 x %struct.DNA]* @a, i64 0, i64 %42
  %44 = getelementptr inbounds %struct.DNA, %struct.DNA* %43, i32 0, i32 0
  %45 = load i32, i32* %4, align 4
  %46 = sext i32 %45 to i64
  %47 = getelementptr inbounds [255 x i8], [255 x i8]* %44, i64 0, i64 %46
  store i8 84, i8* %47, align 1
  br label %108

48:                                               ; preds = %29
  %49 = load i32, i32* %3, align 4
  %50 = sext i32 %49 to i64
  %51 = getelementptr inbounds [1000 x %struct.DNA], [1000 x %struct.DNA]* @a, i64 0, i64 %50
  %52 = getelementptr inbounds %struct.DNA, %struct.DNA* %51, i32 0, i32 0
  %53 = load i32, i32* %4, align 4
  %54 = sext i32 %53 to i64
  %55 = getelementptr inbounds [255 x i8], [255 x i8]* %52, i64 0, i64 %54
  %56 = load i8, i8* %55, align 1
  %57 = sext i8 %56 to i32
  %58 = icmp eq i32 %57, 84
  br i1 %58, label %59, label %67

59:                                               ; preds = %48
  %60 = load i32, i32* %3, align 4
  %61 = sext i32 %60 to i64
  %62 = getelementptr inbounds [1000 x %struct.DNA], [1000 x %struct.DNA]* @a, i64 0, i64 %61
  %63 = getelementptr inbounds %struct.DNA, %struct.DNA* %62, i32 0, i32 0
  %64 = load i32, i32* %4, align 4
  %65 = sext i32 %64 to i64
  %66 = getelementptr inbounds [255 x i8], [255 x i8]* %63, i64 0, i64 %65
  store i8 65, i8* %66, align 1
  br label %107

67:                                               ; preds = %48
  %68 = load i32, i32* %3, align 4
  %69 = sext i32 %68 to i64
  %70 = getelementptr inbounds [1000 x %struct.DNA], [1000 x %struct.DNA]* @a, i64 0, i64 %69
  %71 = getelementptr inbounds %struct.DNA, %struct.DNA* %70, i32 0, i32 0
  %72 = load i32, i32* %4, align 4
  %73 = sext i32 %72 to i64
  %74 = getelementptr inbounds [255 x i8], [255 x i8]* %71, i64 0, i64 %73
  %75 = load i8, i8* %74, align 1
  %76 = sext i8 %75 to i32
  %77 = icmp eq i32 %76, 67
  br i1 %77, label %78, label %86

78:                                               ; preds = %67
  %79 = load i32, i32* %3, align 4
  %80 = sext i32 %79 to i64
  %81 = getelementptr inbounds [1000 x %struct.DNA], [1000 x %struct.DNA]* @a, i64 0, i64 %80
  %82 = getelementptr inbounds %struct.DNA, %struct.DNA* %81, i32 0, i32 0
  %83 = load i32, i32* %4, align 4
  %84 = sext i32 %83 to i64
  %85 = getelementptr inbounds [255 x i8], [255 x i8]* %82, i64 0, i64 %84
  store i8 71, i8* %85, align 1
  br label %106

86:                                               ; preds = %67
  %87 = load i32, i32* %3, align 4
  %88 = sext i32 %87 to i64
  %89 = getelementptr inbounds [1000 x %struct.DNA], [1000 x %struct.DNA]* @a, i64 0, i64 %88
  %90 = getelementptr inbounds %struct.DNA, %struct.DNA* %89, i32 0, i32 0
  %91 = load i32, i32* %4, align 4
  %92 = sext i32 %91 to i64
  %93 = getelementptr inbounds [255 x i8], [255 x i8]* %90, i64 0, i64 %92
  %94 = load i8, i8* %93, align 1
  %95 = sext i8 %94 to i32
  %96 = icmp eq i32 %95, 71
  br i1 %96, label %97, label %105

97:                                               ; preds = %86
  %98 = load i32, i32* %3, align 4
  %99 = sext i32 %98 to i64
  %100 = getelementptr inbounds [1000 x %struct.DNA], [1000 x %struct.DNA]* @a, i64 0, i64 %99
  %101 = getelementptr inbounds %struct.DNA, %struct.DNA* %100, i32 0, i32 0
  %102 = load i32, i32* %4, align 4
  %103 = sext i32 %102 to i64
  %104 = getelementptr inbounds [255 x i8], [255 x i8]* %101, i64 0, i64 %103
  store i8 67, i8* %104, align 1
  br label %105

105:                                              ; preds = %97, %86
  br label %106

106:                                              ; preds = %105, %78
  br label %107

107:                                              ; preds = %106, %59
  br label %108

108:                                              ; preds = %107, %40
  br label %109

109:                                              ; preds = %108
  %110 = load i32, i32* %4, align 4
  %111 = add nsw i32 %110, 1
  store i32 %111, i32* %4, align 4
  br label %25

112:                                              ; preds = %25
  %113 = load i32, i32* %3, align 4
  %114 = sext i32 %113 to i64
  %115 = getelementptr inbounds [1000 x %struct.DNA], [1000 x %struct.DNA]* @a, i64 0, i64 %114
  %116 = getelementptr inbounds %struct.DNA, %struct.DNA* %115, i32 0, i32 0
  %117 = getelementptr inbounds [255 x i8], [255 x i8]* %116, i64 0, i64 0
  %118 = call i32 @puts(i8* %117)
  br label %119

119:                                              ; preds = %112
  %120 = load i32, i32* %3, align 4
  %121 = add nsw i32 %120, 1
  store i32 %121, i32* %3, align 4
  br label %7

122:                                              ; preds = %7
  ret i32 0
}

declare dso_local i32 @__isoc99_scanf(i8*, ...) #1

declare dso_local i32 @gets(...) #1

; Function Attrs: nounwind readonly
declare dso_local i64 @strlen(i8*) #2

declare dso_local i32 @puts(i8*) #1


!llvm.module.flags = !{!0}
!llvm.ident = !{!1}

!0 = !{i32 1, !"wchar_size", i32 4}
!1 = !{!"clang version 10.0.0-4ubuntu1 "}
